; Function Attrs: nounwind uwtable
define internal zeroext i8 @ppmd_read(ptr noundef readonly captures(none) %0) #0 {
  %2 = alloca i64, align 8
  %3 = load ptr, ptr %0, align 8, !tbaa !206
  %4 = getelementptr inbounds nuw i8, ptr %3, i64 2072
  %5 = load ptr, ptr %4, align 8, !tbaa !37
  %6 = load ptr, ptr %5, align 8, !tbaa !50
  call void @llvm.lifetime.start.p0(i64 8, ptr nonnull %2) #21
  store i64 0, ptr %2, align 8, !tbaa !69
  %7 = call ptr @__archive_read_ahead(ptr noundef %3, i64 noundef 1, ptr noundef nonnull %2) #21
  %8 = load i64, ptr %2, align 8, !tbaa !69
  %9 = icmp slt i64 %8, 1
  br i1 %9, label %10, label %12

10:                                               ; preds = %1
  %11 = getelementptr inbounds nuw i8, ptr %6, i64 7969
  store i8 1, ptr %11, align 1, !tbaa !197
  br label %18

12:                                               ; preds = %1
  %13 = call i64 @__archive_read_consume(ptr noundef nonnull %3, i64 noundef 1) #21
  %14 = getelementptr inbounds nuw i8, ptr %6, i64 568
  %15 = load i64, ptr %14, align 8, !tbaa !200
  %16 = add nsw i64 %15, 1
  store i64 %16, ptr %14, align 8, !tbaa !200
  %17 = load i8, ptr %7, align 1, !tbaa !36
  br label %18

18:                                               ; preds = %12, %10
  %.0 = phi i8 [ 0, %10 ], [ %17, %12 ]
  call void @llvm.lifetime.end.p0(i64 8, ptr nonnull %2) #21
  ret i8 %.0
}